target datalayout = "e-m:e-p270:32:32-p271:32:32-p272:64:64-i64:64-i128:128-f80:128-n8:16:32:64-S128"
target triple = "x86_64-unknown-linux-gnu"

%"class.std::set.0" = type { %"class.std::_Rb_tree.1" }
%"class.std::_Rb_tree.1" = type { %"struct.std::_Rb_tree<QuantLib::Observer *, QuantLib::Observer *, std::_Identity<QuantLib::Observer *>, std::less<QuantLib::Observer *>>::_Rb_tree_impl" }
%"struct.std::_Rb_tree<QuantLib::Observer *, QuantLib::Observer *, std::_Identity<QuantLib::Observer *>, std::less<QuantLib::Observer *>>::_Rb_tree_impl" = type { [8 x i8], %"struct.std::_Rb_tree_header" }
%"struct.std::_Rb_tree_header" = type { %"struct.std::_Rb_tree_node_base", i64 }
%"struct.std::_Rb_tree_node_base" = type { i32, ptr, ptr, ptr }
%"class.QuantLib::Date" = type { i64 }
%"class.boost::detail::shared_count" = type { ptr }
%"class.std::set" = type { %"class.std::_Rb_tree" }
%"class.std::_Rb_tree" = type { %"struct.std::_Rb_tree<boost::shared_ptr<QuantLib::Observable>, boost::shared_ptr<QuantLib::Observable>, std::_Identity<boost::shared_ptr<QuantLib::Observable>>, std::less<boost::shared_ptr<QuantLib::Observable>>>::_Rb_tree_impl" }
%"struct.std::_Rb_tree<boost::shared_ptr<QuantLib::Observable>, boost::shared_ptr<QuantLib::Observable>, std::_Identity<boost::shared_ptr<QuantLib::Observable>>, std::less<boost::shared_ptr<QuantLib::Observable>>>::_Rb_tree_impl" = type { [8 x i8], %"struct.std::_Rb_tree_header" }
%"class.QuantLib::Observable" = type { ptr, %"class.std::set.0" }
%"class.boost::shared_ptr.52" = type { ptr, %"class.boost::detail::shared_count" }
%"class.QuantLib::RelativeDateBootstrapHelper" = type { %"class.QuantLib::BootstrapHelper", %"class.QuantLib::Date" }
%"class.QuantLib::BootstrapHelper" = type { %"class.QuantLib::Observer", %"class.QuantLib::Observable", %"class.QuantLib::Handle.50", ptr, %"class.QuantLib::Date", %"class.QuantLib::Date", %"class.QuantLib::Date", %"class.QuantLib::Date", %"class.QuantLib::Date" }
%"class.QuantLib::Observer" = type { ptr, %"class.std::set" }
%"class.QuantLib::Handle.50" = type { %"class.boost::shared_ptr.51" }
%"class.boost::shared_ptr.51" = type { ptr, %"class.boost::detail::shared_count" }
%"class.QuantLib::Period" = type { i32, i32 }
%"class.QuantLib::Calendar" = type { %"class.boost::shared_ptr.17" }
%"class.boost::shared_ptr.17" = type { ptr, %"class.boost::detail::shared_count" }
%"class.QuantLib::Handle" = type { %"class.boost::shared_ptr.49" }
%"class.boost::shared_ptr.49" = type { ptr, %"class.boost::detail::shared_count" }
%"class.boost::shared_ptr.53" = type { ptr, %"class.boost::detail::shared_count" }
%"class.QuantLib::RelinkableHandle" = type { %"class.QuantLib::Handle" }
%"class.QuantLib::OvernightIborBasisSwapRateHelper" = type { %"class.QuantLib::RelativeDateBootstrapHelper", %"class.QuantLib::Period", i32, %"class.QuantLib::Calendar", i32, i8, %"class.boost::shared_ptr.84", %"class.boost::shared_ptr.52", %"class.QuantLib::Handle", %"class.boost::shared_ptr.53", %"class.QuantLib::RelinkableHandle" }
%"class.boost::shared_ptr.84" = type { ptr, %"class.boost::detail::shared_count" }

@.str.9 = private unnamed_addr constant [8 x i8] c"px != 0\00", align 1
@.str.10 = private unnamed_addr constant [102 x i8] c"generated/home/dtcxzyw/WorkSpace/SDK/vcpkg/installed/x64-linux/include/boost/smart_ptr/shared_ptr.hpp\00", align 1
@__PRETTY_FUNCTION__._ZNK5boost10shared_ptrIN8QuantLib4SwapEEptEv = private unnamed_addr constant [125 x i8] c"typename boost::detail::sp_member_access<T>::type boost::shared_ptr<QuantLib::Swap>::operator->() const [T = QuantLib::Swap]\00", align 1

; Function Attrs: mustprogress uwtable
define linkonce_odr noundef ptr @_ZNK5boost10shared_ptrIN8QuantLib4SwapEEptEv(ptr noundef nonnull align 8 dereferenceable(16) %this) #2 comdat align 2 {
entry:
  %this.addr = alloca ptr, align 8
  store ptr %this, ptr %this.addr, align 8, !tbaa !3
  %this1 = load ptr, ptr %this.addr, align 8
  %px = getelementptr inbounds nuw %"class.boost::shared_ptr.53", ptr %this1, i32 0, i32 0
  %0 = load ptr, ptr %px, align 8, !tbaa !62
  %cmp = icmp ne ptr %0, null
  %lnot = xor i1 %cmp, true
  %lnot2 = xor i1 %lnot, true
  %conv = zext i1 %lnot2 to i64
  %expval = call i64 @llvm.expect.i64(i64 %conv, i64 1)
  %tobool = icmp ne i64 %expval, 0
  br i1 %tobool, label %cond.true, label %cond.false

cond.true:                                        ; preds = %entry
  br label %cond.end

cond.false:                                       ; preds = %entry
  call void @_ZN5boost16assertion_failedEPKcS1_S1_l(ptr noundef @.str.9, ptr noundef @__PRETTY_FUNCTION__._ZNK5boost10shared_ptrIN8QuantLib4SwapEEptEv, ptr noundef @.str.10, i64 noundef 784)
  br label %cond.end

cond.end:                                         ; preds = %cond.false, %cond.true
  %px3 = getelementptr inbounds nuw %"class.boost::shared_ptr.53", ptr %this1, i32 0, i32 0
  %1 = load ptr, ptr %px3, align 8, !tbaa !62
  ret ptr %1
}

; Function Attrs: mustprogress uwtable
define noundef double @_ZNK8QuantLib32OvernightIborBasisSwapRateHelper12impliedQuoteEv(ptr noundef nonnull align 8 dereferenceable(304) %this) unnamed_addr #2 align 2 {
entry:
  %this.addr = alloca ptr, align 8
  store ptr %this, ptr %this.addr, align 8, !tbaa !3
  %this1 = load ptr, ptr %this.addr, align 8
  %swap_ = getelementptr inbounds nuw %"class.QuantLib::OvernightIborBasisSwapRateHelper", ptr %this1, i32 0, i32 9
  %call = call noundef ptr @_ZNK5boost10shared_ptrIN8QuantLib4SwapEEptEv(ptr noundef nonnull align 8 dereferenceable(16) %swap_)
  %vtable = load ptr, ptr %call, align 8, !tbaa !12
  %vfn = getelementptr inbounds ptr, ptr %vtable, i64 9
  %0 = load ptr, ptr %vfn, align 8
  call void %0(ptr noundef nonnull align 8 dereferenceable(256) %call)
  %swap_2 = getelementptr inbounds nuw %"class.QuantLib::OvernightIborBasisSwapRateHelper", ptr %this1, i32 0, i32 9
  %call3 = call noundef ptr @_ZNK5boost10shared_ptrIN8QuantLib4SwapEEptEv(ptr noundef nonnull align 8 dereferenceable(16) %swap_2)
  %call4 = call noundef double @_ZNK8QuantLib10Instrument3NPVEv(ptr noundef nonnull align 8 dereferenceable(104) %call3)
  %swap_5 = getelementptr inbounds nuw %"class.QuantLib::OvernightIborBasisSwapRateHelper", ptr %this1, i32 0, i32 9
  %call6 = call noundef ptr @_ZNK5boost10shared_ptrIN8QuantLib4SwapEEptEv(ptr noundef nonnull align 8 dereferenceable(16) %swap_5)
  %call7 = call noundef double @_ZNK8QuantLib4Swap6legBPSEm(ptr noundef nonnull align 8 dereferenceable(256) %call6, i64 noundef 0)
  %div = fdiv double %call4, %call7
  %fneg = fneg double %div
  %mul = fmul double %fneg, 1.000000e-04
  ret double %mul
}