; Function Attrs: mustprogress uwtable
define noundef double @_ZNK8QuantLib32OvernightIborBasisSwapRateHelper12impliedQuoteEv(ptr nocapture noundef nonnull readonly align 8 dereferenceable(304) %this) unnamed_addr #7 align 2 {
entry:
  %swap_ = getelementptr inbounds nuw i8, ptr %this, i64 272
  %0 = load ptr, ptr %swap_, align 8, !tbaa !124
  %cmp.not.i = icmp eq ptr %0, null
  br i1 %cmp.not.i, label %cond.false.i, label %_ZNK5boost10shared_ptrIN8QuantLib4SwapEEptEv.exit, !prof !70

cond.false.i:                                     ; preds = %entry
  tail call void @_ZN5boost16assertion_failedEPKcS1_S1_l(ptr noundef nonnull @.str.9, ptr noundef nonnull @__PRETTY_FUNCTION__._ZNK5boost10shared_ptrIN8QuantLib4SwapEEptEv, ptr noundef nonnull @.str.10, i64 noundef 784)
  %.pre.i = load ptr, ptr %swap_, align 8, !tbaa !124
  br label %_ZNK5boost10shared_ptrIN8QuantLib4SwapEEptEv.exit

_ZNK5boost10shared_ptrIN8QuantLib4SwapEEptEv.exit: ; preds = %entry, %cond.false.i
  %1 = phi ptr [ %0, %entry ], [ %.pre.i, %cond.false.i ]
  %vtable = load ptr, ptr %1, align 8, !tbaa !35
  %vfn = getelementptr inbounds i8, ptr %vtable, i64 72
  %2 = load ptr, ptr %vfn, align 8
  tail call void %2(ptr noundef nonnull align 8 dereferenceable(256) %1)
  %3 = load ptr, ptr %swap_, align 8, !tbaa !124
  %cmp.not.i1 = icmp eq ptr %3, null
  br i1 %cmp.not.i1, label %cond.false.i2, label %_ZNK5boost10shared_ptrIN8QuantLib4SwapEEptEv.exit4, !prof !70

cond.false.i2:                                    ; preds = %_ZNK5boost10shared_ptrIN8QuantLib4SwapEEptEv.exit
  tail call void @_ZN5boost16assertion_failedEPKcS1_S1_l(ptr noundef nonnull @.str.9, ptr noundef nonnull @__PRETTY_FUNCTION__._ZNK5boost10shared_ptrIN8QuantLib4SwapEEptEv, ptr noundef nonnull @.str.10, i64 noundef 784)
  %.pre.i3 = load ptr, ptr %swap_, align 8, !tbaa !124
  br label %_ZNK5boost10shared_ptrIN8QuantLib4SwapEEptEv.exit4

_ZNK5boost10shared_ptrIN8QuantLib4SwapEEptEv.exit4: ; preds = %_ZNK5boost10shared_ptrIN8QuantLib4SwapEEptEv.exit, %cond.false.i2
  %4 = phi ptr [ %3, %_ZNK5boost10shared_ptrIN8QuantLib4SwapEEptEv.exit ], [ %.pre.i3, %cond.false.i2 ]
  %call4 = tail call noundef double @_ZNK8QuantLib10Instrument3NPVEv(ptr noundef nonnull align 8 dereferenceable(104) %4)
  %5 = load ptr, ptr %swap_, align 8, !tbaa !124
  %cmp.not.i5 = icmp eq ptr %5, null
  br i1 %cmp.not.i5, label %cond.false.i6, label %_ZNK5boost10shared_ptrIN8QuantLib4SwapEEptEv.exit8, !prof !70

cond.false.i6:                                    ; preds = %_ZNK5boost10shared_ptrIN8QuantLib4SwapEEptEv.exit4
  tail call void @_ZN5boost16assertion_failedEPKcS1_S1_l(ptr noundef nonnull @.str.9, ptr noundef nonnull @__PRETTY_FUNCTION__._ZNK5boost10shared_ptrIN8QuantLib4SwapEEptEv, ptr noundef nonnull @.str.10, i64 noundef 784)
  %.pre.i7 = load ptr, ptr %swap_, align 8, !tbaa !124
  br label %_ZNK5boost10shared_ptrIN8QuantLib4SwapEEptEv.exit8

_ZNK5boost10shared_ptrIN8QuantLib4SwapEEptEv.exit8: ; preds = %_ZNK5boost10shared_ptrIN8QuantLib4SwapEEptEv.exit4, %cond.false.i6
  %6 = phi ptr [ %5, %_ZNK5boost10shared_ptrIN8QuantLib4SwapEEptEv.exit4 ], [ %.pre.i7, %cond.false.i6 ]
  %call7 = tail call noundef double @_ZNK8QuantLib4Swap6legBPSEm(ptr noundef nonnull align 8 dereferenceable(256) %6, i64 noundef 0)
  %7 = fneg double %call4
  %fneg = fdiv double %7, %call7
  %mul = fmul double %fneg, 1.000000e-04
  ret double %mul
}